target datalayout = "e-m:e-p270:32:32-p271:32:32-p272:64:64-i64:64-i128:128-f80:128-n8:16:32:64-S128"
target triple = "x86_64-pc-linux-gnu"

%struct.MtrNode = type { i32, i32, i32, i32, ptr, ptr, ptr, ptr }

; Function Attrs: nounwind uwtable
define void @Mtr_MakeFirstChild(ptr noundef %0, ptr noundef %1) #0 {
  %3 = alloca ptr, align 8
  %4 = alloca ptr, align 8
  store ptr %0, ptr %3, align 8, !tbaa !3
  store ptr %1, ptr %4, align 8, !tbaa !3
  %5 = load ptr, ptr %3, align 8, !tbaa !3
  %6 = load ptr, ptr %4, align 8, !tbaa !3
  %7 = getelementptr inbounds nuw %struct.MtrNode, ptr %6, i32 0, i32 4
  store ptr %5, ptr %7, align 8, !tbaa !13
  %8 = load ptr, ptr %3, align 8, !tbaa !3
  %9 = getelementptr inbounds nuw %struct.MtrNode, ptr %8, i32 0, i32 5
  %10 = load ptr, ptr %9, align 8, !tbaa !12
  %11 = load ptr, ptr %4, align 8, !tbaa !3
  %12 = getelementptr inbounds nuw %struct.MtrNode, ptr %11, i32 0, i32 7
  store ptr %10, ptr %12, align 8, !tbaa !8
  %13 = load ptr, ptr %4, align 8, !tbaa !3
  %14 = getelementptr inbounds nuw %struct.MtrNode, ptr %13, i32 0, i32 6
  store ptr null, ptr %14, align 8, !tbaa !11
  %15 = load ptr, ptr %3, align 8, !tbaa !3
  %16 = getelementptr inbounds nuw %struct.MtrNode, ptr %15, i32 0, i32 5
  %17 = load ptr, ptr %16, align 8, !tbaa !12
  %18 = icmp ne ptr %17, null
  br i1 %18, label %19, label %25

19:                                               ; preds = %2
  %20 = load ptr, ptr %4, align 8, !tbaa !3
  %21 = load ptr, ptr %3, align 8, !tbaa !3
  %22 = getelementptr inbounds nuw %struct.MtrNode, ptr %21, i32 0, i32 5
  %23 = load ptr, ptr %22, align 8, !tbaa !12
  %24 = getelementptr inbounds nuw %struct.MtrNode, ptr %23, i32 0, i32 6
  store ptr %20, ptr %24, align 8, !tbaa !11
  br label %25

25:                                               ; preds = %19, %2
  %26 = load ptr, ptr %4, align 8, !tbaa !3
  %27 = load ptr, ptr %3, align 8, !tbaa !3
  %28 = getelementptr inbounds nuw %struct.MtrNode, ptr %27, i32 0, i32 5
  store ptr %26, ptr %28, align 8, !tbaa !12
  ret void
}

; Function Attrs: nounwind uwtable
define ptr @Mtr_AllocNode() #0 {
  %1 = alloca ptr, align 8
  call void @llvm.lifetime.start.p0(i64 8, ptr %1) #4
  %2 = call noalias ptr @malloc(i64 noundef 48) #5
  store ptr %2, ptr %1, align 8, !tbaa !3
  %3 = load ptr, ptr %1, align 8, !tbaa !3
  call void @llvm.lifetime.end.p0(i64 8, ptr %1) #4
  ret ptr %3
}

; Function Attrs: nounwind uwtable
define ptr @Mtr_CreateFirstChild(ptr noundef %0) #0 {
  %2 = alloca ptr, align 8
  %3 = alloca ptr, align 8
  %4 = alloca ptr, align 8
  %5 = alloca i32, align 4
  store ptr %0, ptr %3, align 8, !tbaa !3
  call void @llvm.lifetime.start.p0(i64 8, ptr %4) #4
  %6 = call ptr @Mtr_AllocNode()
  store ptr %6, ptr %4, align 8, !tbaa !3
  %7 = load ptr, ptr %4, align 8, !tbaa !3
  %8 = icmp eq ptr %7, null
  br i1 %8, label %9, label %10

9:                                                ; preds = %1
  store ptr null, ptr %2, align 8
  store i32 1, ptr %5, align 4
  br label %22

10:                                               ; preds = %1
  %11 = load ptr, ptr %4, align 8, !tbaa !3
  %12 = getelementptr inbounds nuw %struct.MtrNode, ptr %11, i32 0, i32 6
  store ptr null, ptr %12, align 8, !tbaa !11
  %13 = load ptr, ptr %4, align 8, !tbaa !3
  %14 = getelementptr inbounds nuw %struct.MtrNode, ptr %13, i32 0, i32 7
  store ptr null, ptr %14, align 8, !tbaa !8
  %15 = load ptr, ptr %4, align 8, !tbaa !3
  %16 = getelementptr inbounds nuw %struct.MtrNode, ptr %15, i32 0, i32 5
  store ptr null, ptr %16, align 8, !tbaa !12
  %17 = load ptr, ptr %4, align 8, !tbaa !3
  %18 = getelementptr inbounds nuw %struct.MtrNode, ptr %17, i32 0, i32 0
  store i32 0, ptr %18, align 8, !tbaa !14
  %19 = load ptr, ptr %3, align 8, !tbaa !3
  %20 = load ptr, ptr %4, align 8, !tbaa !3
  call void @Mtr_MakeFirstChild(ptr noundef %19, ptr noundef %20)
  %21 = load ptr, ptr %4, align 8, !tbaa !3
  store ptr %21, ptr %2, align 8
  store i32 1, ptr %5, align 4
  br label %22

22:                                               ; preds = %10, %9
  call void @llvm.lifetime.end.p0(i64 8, ptr %4) #4
  %23 = load ptr, ptr %2, align 8
  ret ptr %23
}