; Function Attrs: mustprogress nofree nounwind willreturn memory(write, argmem: readwrite, inaccessiblemem: readwrite) uwtable
define noundef ptr @Mtr_CreateFirstChild(ptr noundef %0) local_unnamed_addr #8 {
  %2 = tail call noalias noundef dereferenceable_or_null(48) ptr @malloc(i64 noundef 48) #12
  %3 = icmp eq ptr %2, null
  br i1 %3, label %13, label %4

4:                                                ; preds = %1
  %5 = getelementptr inbounds nuw i8, ptr %2, i64 32
  %6 = getelementptr inbounds nuw i8, ptr %2, i64 40
  %7 = getelementptr inbounds nuw i8, ptr %2, i64 24
  store i32 0, ptr %2, align 8, !tbaa !3
  %8 = getelementptr inbounds nuw i8, ptr %2, i64 16
  store i64 0, ptr %7, align 8
  store ptr %0, ptr %8, align 8, !tbaa !16
  %9 = getelementptr inbounds nuw i8, ptr %0, i64 24
  %10 = load ptr, ptr %9, align 8, !tbaa !10
  store ptr %10, ptr %6, align 8, !tbaa !11
  store ptr null, ptr %5, align 8, !tbaa !15
  %.not.i = icmp eq ptr %10, null
  br i1 %.not.i, label %Mtr_MakeFirstChild.exit, label %11

11:                                               ; preds = %4
  %12 = getelementptr inbounds nuw i8, ptr %10, i64 32
  store ptr %2, ptr %12, align 8, !tbaa !15
  br label %Mtr_MakeFirstChild.exit

Mtr_MakeFirstChild.exit:                          ; preds = %4, %11
  store ptr %2, ptr %9, align 8, !tbaa !10
  br label %13

13:                                               ; preds = %1, %Mtr_MakeFirstChild.exit
  ret ptr %2
}